; Function Attrs: mustprogress nounwind uwtable
define void @_ZN5faiss15Level1QuantizerD2Ev(ptr noundef nonnull readonly align 8 captures(none) dereferenceable(80) %0) unnamed_addr #1 align 2 {
  %2 = getelementptr inbounds nuw i8, ptr %0, i64 17
  %3 = load i8, ptr %2, align 1, !tbaa !136, !range !12, !noundef !13
  %4 = trunc nuw i8 %3 to i1
  br i1 %4, label %5, label %12

5:                                                ; preds = %1
  %6 = load ptr, ptr %0, align 8, !tbaa !57
  %7 = icmp eq ptr %6, null
  br i1 %7, label %12, label %8

8:                                                ; preds = %5
  %9 = load ptr, ptr %6, align 8, !tbaa !14
  %10 = getelementptr inbounds nuw i8, ptr %9, i64 8
  %11 = load ptr, ptr %10, align 8
  tail call void %11(ptr noundef nonnull align 8 dereferenceable(36) %6) #27
  br label %12

12:                                               ; preds = %5, %8, %1
  ret void
}